target datalayout = "e-m:e-p270:32:32-p271:32:32-p272:64:64-i64:64-i128:128-f80:128-n8:16:32:64-S128"
target triple = "x86_64-pc-linux-gnu"

%struct.H5E_stack_t = type { i64, [32 x %struct.H5E_entry_t], %struct.H5E_auto_op_t, ptr, i32 }
%struct.H5E_entry_t = type { i8, %struct.H5E_error2_t }
%struct.H5E_error2_t = type { i64, i64, i64, i32, ptr, ptr, ptr }
%struct.H5E_auto_op_t = type { i32, i8, ptr, ptr, ptr, ptr }
%struct.__va_list_tag = type { i32, i32, ptr, ptr }

@H5E_init_g = external global i8, align 1
@H5_libterm_g = external global i8, align 1
@.str.405 = private unnamed_addr constant [17 x i8] c"Unknown_Function\00", align 1
@.str.406 = private unnamed_addr constant [13 x i8] c"Unknown_File\00", align 1
@.str.407 = private unnamed_addr constant [21 x i8] c"No description given\00", align 1

; Function Attrs: nounwind uwtable
define internal i32 @H5E__set_stack_entry(ptr noundef %0, ptr noundef %1, ptr noundef %2, i32 noundef %3, i64 noundef %4, i64 noundef %5, i64 noundef %6, ptr noundef %7, ptr noundef %8) #0 {
  %10 = alloca i32, align 4
  %11 = alloca ptr, align 8
  %12 = alloca ptr, align 8
  %13 = alloca ptr, align 8
  %14 = alloca i32, align 4
  %15 = alloca i64, align 8
  %16 = alloca i64, align 8
  %17 = alloca i64, align 8
  %18 = alloca ptr, align 8
  %19 = alloca ptr, align 8
  %20 = alloca i32, align 4
  %21 = alloca ptr, align 8
  %22 = alloca i32, align 4
  store ptr %0, ptr %11, align 8, !tbaa !89
  store ptr %1, ptr %12, align 8, !tbaa !13
  store ptr %2, ptr %13, align 8, !tbaa !13
  store i32 %3, ptr %14, align 4, !tbaa !3
  store i64 %4, ptr %15, align 8, !tbaa !11
  store i64 %5, ptr %16, align 8, !tbaa !11
  store i64 %6, ptr %17, align 8, !tbaa !11
  store ptr %7, ptr %18, align 8, !tbaa !13
  store ptr %8, ptr %19, align 8, !tbaa !99
  call void @llvm.lifetime.start.p0(i64 4, ptr %20) #9
  store i32 0, ptr %20, align 4, !tbaa !3
  %23 = load i8, ptr @H5E_init_g, align 1, !tbaa !7, !range !9, !noundef !10
  %24 = trunc i8 %23 to i1
  br i1 %24, label %29, label %25

25:                                               ; preds = %9
  %26 = load i8, ptr @H5_libterm_g, align 1, !tbaa !7, !range !9, !noundef !10
  %27 = trunc i8 %26 to i1
  %28 = xor i1 %27, true
  br label %29

29:                                               ; preds = %25, %9
  %30 = phi i1 [ true, %9 ], [ %28, %25 ]
  %31 = xor i1 %30, true
  %32 = xor i1 %31, true
  %33 = zext i1 %32 to i32
  %34 = sext i32 %33 to i64
  %35 = call i64 @llvm.expect.i64(i64 %34, i64 1)
  %36 = icmp ne i64 %35, 0
  br i1 %36, label %37, label %100

37:                                               ; preds = %29
  %38 = load ptr, ptr %13, align 8, !tbaa !13
  %39 = icmp ne ptr %38, null
  br i1 %39, label %41, label %40

40:                                               ; preds = %37
  store ptr @.str.405, ptr %13, align 8, !tbaa !13
  br label %41

41:                                               ; preds = %40, %37
  %42 = load ptr, ptr %12, align 8, !tbaa !13
  %43 = icmp ne ptr %42, null
  br i1 %43, label %45, label %44

44:                                               ; preds = %41
  store ptr @.str.406, ptr %12, align 8, !tbaa !13
  br label %45

45:                                               ; preds = %44, %41
  %46 = load ptr, ptr %18, align 8, !tbaa !13
  %47 = icmp ne ptr %46, null
  br i1 %47, label %49, label %48

48:                                               ; preds = %45
  store ptr @.str.407, ptr %18, align 8, !tbaa !13
  br label %49

49:                                               ; preds = %48, %45
  %50 = load i64, ptr %15, align 8, !tbaa !11
  %51 = load ptr, ptr %11, align 8, !tbaa !89
  %52 = getelementptr inbounds nuw %struct.H5E_error2_t, ptr %51, i32 0, i32 0
  store i64 %50, ptr %52, align 8, !tbaa !93
  %53 = load i64, ptr %16, align 8, !tbaa !11
  %54 = load ptr, ptr %11, align 8, !tbaa !89
  %55 = getelementptr inbounds nuw %struct.H5E_error2_t, ptr %54, i32 0, i32 1
  store i64 %53, ptr %55, align 8, !tbaa !91
  %56 = load i64, ptr %17, align 8, !tbaa !11
  %57 = load ptr, ptr %11, align 8, !tbaa !89
  %58 = getelementptr inbounds nuw %struct.H5E_error2_t, ptr %57, i32 0, i32 2
  store i64 %56, ptr %58, align 8, !tbaa !92
  %59 = load ptr, ptr %13, align 8, !tbaa !13
  %60 = load ptr, ptr %11, align 8, !tbaa !89
  %61 = getelementptr inbounds nuw %struct.H5E_error2_t, ptr %60, i32 0, i32 4
  store ptr %59, ptr %61, align 8, !tbaa !97
  %62 = load ptr, ptr %12, align 8, !tbaa !13
  %63 = load ptr, ptr %11, align 8, !tbaa !89
  %64 = getelementptr inbounds nuw %struct.H5E_error2_t, ptr %63, i32 0, i32 5
  store ptr %62, ptr %64, align 8, !tbaa !95
  %65 = load i32, ptr %14, align 4, !tbaa !3
  %66 = load ptr, ptr %11, align 8, !tbaa !89
  %67 = getelementptr inbounds nuw %struct.H5E_error2_t, ptr %66, i32 0, i32 3
  store i32 %65, ptr %67, align 8, !tbaa !96
  %68 = load ptr, ptr %19, align 8, !tbaa !99
  %69 = icmp ne ptr %68, null
  br i1 %69, label %70, label %87

70:                                               ; preds = %49
  call void @llvm.lifetime.start.p0(i64 8, ptr %21) #9
  store ptr null, ptr %21, align 8, !tbaa !13
  %71 = load ptr, ptr %18, align 8, !tbaa !13
  %72 = load ptr, ptr %19, align 8, !tbaa !99
  %73 = getelementptr inbounds [1 x %struct.__va_list_tag], ptr %72, i64 0, i64 0
  %74 = call i32 @vasprintf(ptr noundef %21, ptr noundef %71, ptr noundef %73) #9
  %75 = icmp slt i32 %74, 0
  br i1 %75, label %76, label %80

76:                                               ; preds = %70
  br label %77

77:                                               ; preds = %76
  store i32 -1, ptr %20, align 4, !tbaa !3
  store i32 4, ptr %22, align 4
  br label %84

78:                                               ; No predecessors!
  br label %79

79:                                               ; preds = %78
  br label %80

80:                                               ; preds = %79, %70
  %81 = load ptr, ptr %21, align 8, !tbaa !13
  %82 = load ptr, ptr %11, align 8, !tbaa !89
  %83 = getelementptr inbounds nuw %struct.H5E_error2_t, ptr %82, i32 0, i32 6
  store ptr %81, ptr %83, align 8, !tbaa !94
  store i32 0, ptr %22, align 4
  br label %84

84:                                               ; preds = %77, %80
  call void @llvm.lifetime.end.p0(i64 8, ptr %21) #9
  %85 = load i32, ptr %22, align 4
  switch i32 %85, label %102 [
    i32 0, label %86
    i32 4, label %99
  ]

86:                                               ; preds = %84
  br label %98

87:                                               ; preds = %49
  %88 = load ptr, ptr %18, align 8, !tbaa !13
  %89 = call noalias ptr @strdup(ptr noundef %88) #9
  %90 = load ptr, ptr %11, align 8, !tbaa !89
  %91 = getelementptr inbounds nuw %struct.H5E_error2_t, ptr %90, i32 0, i32 6
  store ptr %89, ptr %91, align 8, !tbaa !94
  %92 = icmp eq ptr null, %89
  br i1 %92, label %93, label %97

93:                                               ; preds = %87
  br label %94

94:                                               ; preds = %93
  store i32 -1, ptr %20, align 4, !tbaa !3
  br label %99

95:                                               ; No predecessors!
  br label %96

96:                                               ; preds = %95
  br label %97

97:                                               ; preds = %96, %87
  br label %98

98:                                               ; preds = %97, %86
  br label %99

99:                                               ; preds = %98, %84, %94
  br label %100

100:                                              ; preds = %99, %29
  %101 = load i32, ptr %20, align 4, !tbaa !3
  store i32 %101, ptr %10, align 4
  store i32 1, ptr %22, align 4
  br label %102

102:                                              ; preds = %100, %84
  call void @llvm.lifetime.end.p0(i64 4, ptr %20) #9
  %103 = load i32, ptr %10, align 4
  ret i32 %103
}

; Function Attrs: nounwind uwtable
define i32 @H5E__push_stack(ptr noundef %0, i1 noundef zeroext %1, ptr noundef %2, ptr noundef %3, i32 noundef %4, i64 noundef %5, i64 noundef %6, i64 noundef %7, ptr noundef %8, ptr noundef %9) #0 {
  %11 = alloca ptr, align 8
  %12 = alloca i8, align 1
  %13 = alloca ptr, align 8
  %14 = alloca ptr, align 8
  %15 = alloca i32, align 4
  %16 = alloca i64, align 8
  %17 = alloca i64, align 8
  %18 = alloca i64, align 8
  %19 = alloca ptr, align 8
  %20 = alloca ptr, align 8
  %21 = alloca i32, align 4
  store ptr %0, ptr %11, align 8, !tbaa !16
  %22 = zext i1 %1 to i8
  store i8 %22, ptr %12, align 1, !tbaa !7
  store ptr %2, ptr %13, align 8, !tbaa !13
  store ptr %3, ptr %14, align 8, !tbaa !13
  store i32 %4, ptr %15, align 4, !tbaa !3
  store i64 %5, ptr %16, align 8, !tbaa !11
  store i64 %6, ptr %17, align 8, !tbaa !11
  store i64 %7, ptr %18, align 8, !tbaa !11
  store ptr %8, ptr %19, align 8, !tbaa !13
  store ptr %9, ptr %20, align 8, !tbaa !99
  call void @llvm.lifetime.start.p0(i64 4, ptr %21) #9
  store i32 0, ptr %21, align 4, !tbaa !3
  %23 = load i8, ptr @H5E_init_g, align 1, !tbaa !7, !range !9, !noundef !10
  %24 = trunc i8 %23 to i1
  br i1 %24, label %29, label %25

25:                                               ; preds = %10
  %26 = load i8, ptr @H5_libterm_g, align 1, !tbaa !7, !range !9, !noundef !10
  %27 = trunc i8 %26 to i1
  %28 = xor i1 %27, true
  br label %29

29:                                               ; preds = %25, %10
  %30 = phi i1 [ true, %10 ], [ %28, %25 ]
  %31 = xor i1 %30, true
  %32 = xor i1 %31, true
  %33 = zext i1 %32 to i32
  %34 = sext i32 %33 to i64
  %35 = call i64 @llvm.expect.i64(i64 %34, i64 1)
  %36 = icmp ne i64 %35, 0
  br i1 %36, label %37, label %81

37:                                               ; preds = %29
  %38 = load ptr, ptr %11, align 8, !tbaa !16
  %39 = getelementptr inbounds nuw %struct.H5E_stack_t, ptr %38, i32 0, i32 0
  %40 = load i64, ptr %39, align 8, !tbaa !21
  %41 = icmp ult i64 %40, 32
  br i1 %41, label %42, label %79

42:                                               ; preds = %37
  %43 = load i8, ptr %12, align 1, !tbaa !7, !range !9, !noundef !10
  %44 = trunc i8 %43 to i1
  %45 = load ptr, ptr %11, align 8, !tbaa !16
  %46 = getelementptr inbounds nuw %struct.H5E_stack_t, ptr %45, i32 0, i32 1
  %47 = load ptr, ptr %11, align 8, !tbaa !16
  %48 = getelementptr inbounds nuw %struct.H5E_stack_t, ptr %47, i32 0, i32 0
  %49 = load i64, ptr %48, align 8, !tbaa !21
  %50 = getelementptr inbounds nuw [32 x %struct.H5E_entry_t], ptr %46, i64 0, i64 %49
  %51 = getelementptr inbounds nuw %struct.H5E_entry_t, ptr %50, i32 0, i32 0
  %52 = zext i1 %44 to i8
  store i8 %52, ptr %51, align 8, !tbaa !53
  %53 = load ptr, ptr %11, align 8, !tbaa !16
  %54 = getelementptr inbounds nuw %struct.H5E_stack_t, ptr %53, i32 0, i32 1
  %55 = load ptr, ptr %11, align 8, !tbaa !16
  %56 = getelementptr inbounds nuw %struct.H5E_stack_t, ptr %55, i32 0, i32 0
  %57 = load i64, ptr %56, align 8, !tbaa !21
  %58 = getelementptr inbounds nuw [32 x %struct.H5E_entry_t], ptr %54, i64 0, i64 %57
  %59 = getelementptr inbounds nuw %struct.H5E_entry_t, ptr %58, i32 0, i32 1
  %60 = load ptr, ptr %13, align 8, !tbaa !13
  %61 = load ptr, ptr %14, align 8, !tbaa !13
  %62 = load i32, ptr %15, align 4, !tbaa !3
  %63 = load i64, ptr %16, align 8, !tbaa !11
  %64 = load i64, ptr %17, align 8, !tbaa !11
  %65 = load i64, ptr %18, align 8, !tbaa !11
  %66 = load ptr, ptr %19, align 8, !tbaa !13
  %67 = load ptr, ptr %20, align 8, !tbaa !99
  %68 = call i32 @H5E__set_stack_entry(ptr noundef %59, ptr noundef %60, ptr noundef %61, i32 noundef %62, i64 noundef %63, i64 noundef %64, i64 noundef %65, ptr noundef %66, ptr noundef %67)
  %69 = icmp slt i32 %68, 0
  br i1 %69, label %70, label %74

70:                                               ; preds = %42
  br label %71

71:                                               ; preds = %70
  store i32 -1, ptr %21, align 4, !tbaa !3
  br label %80

72:                                               ; No predecessors!
  br label %73

73:                                               ; preds = %72
  br label %74

74:                                               ; preds = %73, %42
  %75 = load ptr, ptr %11, align 8, !tbaa !16
  %76 = getelementptr inbounds nuw %struct.H5E_stack_t, ptr %75, i32 0, i32 0
  %77 = load i64, ptr %76, align 8, !tbaa !21
  %78 = add i64 %77, 1
  store i64 %78, ptr %76, align 8, !tbaa !21
  br label %79

79:                                               ; preds = %74, %37
  br label %80

80:                                               ; preds = %79, %71
  br label %81

81:                                               ; preds = %80, %29
  %82 = load i32, ptr %21, align 4, !tbaa !3
  call void @llvm.lifetime.end.p0(i64 4, ptr %21) #9
  ret i32 %82
}