; Function Attrs: nounwind uwtable
define range(i32 -1, 1) i32 @H5E__push_stack(ptr noundef captures(none) %0, i1 noundef zeroext %1, ptr noundef %2, ptr noundef %3, i32 noundef %4, i64 noundef %5, i64 noundef %6, i64 noundef %7, ptr noundef %8, ptr noundef %9) local_unnamed_addr #0 {
  %11 = alloca ptr, align 8
  %12 = zext i1 %1 to i8
  %13 = load i8, ptr @H5E_init_g, align 1, !tbaa !3, !range !7, !noundef !8
  %14 = trunc nuw i8 %13 to i1
  %15 = load i8, ptr @H5_libterm_g, align 1, !range !7
  %16 = trunc nuw i8 %15 to i1
  %17 = xor i1 %16, true
  %18 = select i1 %14, i1 true, i1 %17
  br i1 %18, label %19, label %49, !prof !9

19:                                               ; preds = %10
  %20 = load i64, ptr %0, align 8, !tbaa !13
  %21 = icmp ult i64 %20, 32
  br i1 %21, label %22, label %49

22:                                               ; preds = %19
  %23 = getelementptr inbounds nuw i8, ptr %0, i64 8
  %24 = getelementptr inbounds nuw [32 x %struct.H5E_entry_t], ptr %23, i64 0, i64 %20
  store i8 %12, ptr %24, align 8, !tbaa !18
  %.idx = shl nuw nsw i64 %20, 6
  %.offs = or disjoint i64 %.idx, 8
  %25 = getelementptr inbounds nuw i8, ptr %23, i64 %.offs
  %26 = load i8, ptr @H5E_init_g, align 1, !tbaa !3, !range !7, !noundef !8
  %27 = trunc nuw i8 %26 to i1
  %28 = load i8, ptr @H5_libterm_g, align 1, !range !7
  %29 = trunc nuw i8 %28 to i1
  %30 = xor i1 %29, true
  %31 = select i1 %27, i1 true, i1 %30
  br i1 %31, label %32, label %H5E__set_stack_entry.exit.thread, !prof !9

32:                                               ; preds = %22
  %.not.i = icmp eq ptr %3, null
  %spec.store.select.i = select i1 %.not.i, ptr @.str.405, ptr %3
  %.not28.i = icmp eq ptr %2, null
  %spec.store.select2.i = select i1 %.not28.i, ptr @.str.406, ptr %2
  %.not29.i = icmp eq ptr %8, null
  %spec.store.select1.i = select i1 %.not29.i, ptr @.str.407, ptr %8
  store i64 %5, ptr %25, align 8, !tbaa !22
  %33 = getelementptr inbounds nuw i8, ptr %25, i64 8
  store i64 %6, ptr %33, align 8, !tbaa !23
  %34 = getelementptr inbounds nuw i8, ptr %25, i64 16
  store i64 %7, ptr %34, align 8, !tbaa !24
  %35 = getelementptr inbounds nuw i8, ptr %25, i64 32
  store ptr %spec.store.select.i, ptr %35, align 8, !tbaa !25
  %36 = getelementptr inbounds nuw i8, ptr %25, i64 40
  store ptr %spec.store.select2.i, ptr %36, align 8, !tbaa !26
  %37 = getelementptr inbounds nuw i8, ptr %25, i64 24
  store i32 %4, ptr %37, align 8, !tbaa !27
  %.not30.i = icmp eq ptr %9, null
  br i1 %.not30.i, label %H5E__set_stack_entry.exit, label %38

38:                                               ; preds = %32
  call void @llvm.lifetime.start.p0(i64 8, ptr nonnull %11) #16
  store ptr null, ptr %11, align 8, !tbaa !28
  %39 = call i32 @vasprintf(ptr noundef nonnull %11, ptr noundef nonnull %spec.store.select1.i, ptr noundef nonnull %9) #16
  %40 = icmp slt i32 %39, 0
  br i1 %40, label %.thread, label %41

.thread:                                          ; preds = %38
  call void @llvm.lifetime.end.p0(i64 8, ptr nonnull %11) #16
  br label %49

41:                                               ; preds = %38
  %42 = load ptr, ptr %11, align 8, !tbaa !28
  %43 = getelementptr inbounds nuw i8, ptr %25, i64 48
  store ptr %42, ptr %43, align 8, !tbaa !29
  call void @llvm.lifetime.end.p0(i64 8, ptr nonnull %11) #16
  br label %H5E__set_stack_entry.exit.H5E__set_stack_entry.exit.thread_crit_edge

H5E__set_stack_entry.exit:                        ; preds = %32
  %44 = tail call noalias ptr @strdup(ptr noundef nonnull %spec.store.select1.i) #16
  %45 = getelementptr inbounds nuw i8, ptr %25, i64 48
  store ptr %44, ptr %45, align 8, !tbaa !29
  %46 = icmp eq ptr %44, null
  br i1 %46, label %49, label %H5E__set_stack_entry.exit.H5E__set_stack_entry.exit.thread_crit_edge

H5E__set_stack_entry.exit.H5E__set_stack_entry.exit.thread_crit_edge: ; preds = %41, %H5E__set_stack_entry.exit
  %.pre = load i64, ptr %0, align 8, !tbaa !13
  br label %H5E__set_stack_entry.exit.thread

H5E__set_stack_entry.exit.thread:                 ; preds = %H5E__set_stack_entry.exit.H5E__set_stack_entry.exit.thread_crit_edge, %22
  %47 = phi i64 [ %.pre, %H5E__set_stack_entry.exit.H5E__set_stack_entry.exit.thread_crit_edge ], [ %20, %22 ]
  %48 = add i64 %47, 1
  store i64 %48, ptr %0, align 8, !tbaa !13
  br label %49

49:                                               ; preds = %.thread, %H5E__set_stack_entry.exit, %H5E__set_stack_entry.exit.thread, %19, %10
  %.0 = phi i32 [ 0, %H5E__set_stack_entry.exit.thread ], [ 0, %19 ], [ 0, %10 ], [ -1, %H5E__set_stack_entry.exit ], [ -1, %.thread ]
  ret i32 %.0
}